target datalayout = "e-m:e-p270:32:32-p271:32:32-p272:64:64-i64:64-i128:128-f80:128-n8:16:32:64-S128"
target triple = "x86_64-pc-linux-gnu"

%struct._object = type { %union.anon, ptr }
%union.anon = type { i64 }
%struct.anon = type { i32, i32 }
%struct.gaobject = type { %struct._object, ptr, ptr, ptr, ptr, i8, ptr }

; Function Attrs: alwaysinline nounwind uwtable
define internal void @Py_INCREF(ptr noundef %0) #4 {
  %2 = alloca ptr, align 8
  %3 = alloca i32, align 4
  %4 = alloca i32, align 4
  store ptr %0, ptr %2, align 8, !tbaa !4
  call void @llvm.lifetime.start.p0(i64 4, ptr %3) #5
  %5 = load ptr, ptr %2, align 8, !tbaa !4
  %6 = getelementptr inbounds nuw %struct._object, ptr %5, i32 0, i32 0
  %7 = getelementptr inbounds nuw %struct.anon, ptr %6, i32 0, i32 0
  %8 = load i32, ptr %7, align 8, !tbaa !17
  store i32 %8, ptr %3, align 4, !tbaa !11
  %9 = load i32, ptr %3, align 4, !tbaa !11
  %10 = icmp slt i32 %9, 0
  br i1 %10, label %11, label %12

11:                                               ; preds = %1
  store i32 1, ptr %4, align 4
  br label %18

12:                                               ; preds = %1
  %13 = load i32, ptr %3, align 4, !tbaa !11
  %14 = add i32 %13, 1
  %15 = load ptr, ptr %2, align 8, !tbaa !4
  %16 = getelementptr inbounds nuw %struct._object, ptr %15, i32 0, i32 0
  %17 = getelementptr inbounds nuw %struct.anon, ptr %16, i32 0, i32 0
  store i32 %14, ptr %17, align 8, !tbaa !17
  store i32 0, ptr %4, align 4
  br label %18

18:                                               ; preds = %12, %11
  call void @llvm.lifetime.end.p0(i64 4, ptr %3) #5
  %19 = load i32, ptr %4, align 4
  switch i32 %19, label %21 [
    i32 0, label %20
    i32 1, label %20
  ]

20:                                               ; preds = %18, %18
  ret void

21:                                               ; preds = %18
  unreachable
}

; Function Attrs: inlinehint nounwind uwtable
define internal ptr @_Py_NewRef(ptr noundef %0) #2 {
  %2 = alloca ptr, align 8
  store ptr %0, ptr %2, align 8, !tbaa !4
  %3 = load ptr, ptr %2, align 8, !tbaa !4
  call void @Py_INCREF(ptr noundef %3)
  %4 = load ptr, ptr %2, align 8, !tbaa !4
  ret ptr %4
}

; Function Attrs: nounwind uwtable
define internal ptr @ga_parameters(ptr noundef %0, ptr noundef %1) #0 {
  %3 = alloca ptr, align 8
  %4 = alloca ptr, align 8
  %5 = alloca ptr, align 8
  %6 = alloca ptr, align 8
  %7 = alloca i32, align 4
  store ptr %0, ptr %4, align 8, !tbaa !4
  store ptr %1, ptr %5, align 8, !tbaa !16
  call void @llvm.lifetime.start.p0(i64 8, ptr %6) #5
  %8 = load ptr, ptr %4, align 8, !tbaa !4
  store ptr %8, ptr %6, align 8, !tbaa !16
  %9 = load ptr, ptr %6, align 8, !tbaa !16
  %10 = getelementptr inbounds nuw %struct.gaobject, ptr %9, i32 0, i32 3
  %11 = load ptr, ptr %10, align 8, !tbaa !47
  %12 = icmp eq ptr %11, null
  br i1 %12, label %13, label %26

13:                                               ; preds = %2
  %14 = load ptr, ptr %6, align 8, !tbaa !16
  %15 = getelementptr inbounds nuw %struct.gaobject, ptr %14, i32 0, i32 2
  %16 = load ptr, ptr %15, align 8, !tbaa !44
  %17 = call ptr @_Py_make_parameters(ptr noundef %16)
  %18 = load ptr, ptr %6, align 8, !tbaa !16
  %19 = getelementptr inbounds nuw %struct.gaobject, ptr %18, i32 0, i32 3
  store ptr %17, ptr %19, align 8, !tbaa !47
  %20 = load ptr, ptr %6, align 8, !tbaa !16
  %21 = getelementptr inbounds nuw %struct.gaobject, ptr %20, i32 0, i32 3
  %22 = load ptr, ptr %21, align 8, !tbaa !47
  %23 = icmp eq ptr %22, null
  br i1 %23, label %24, label %25

24:                                               ; preds = %13
  store ptr null, ptr %3, align 8
  store i32 1, ptr %7, align 4
  br label %31

25:                                               ; preds = %13
  br label %26

26:                                               ; preds = %25, %2
  %27 = load ptr, ptr %6, align 8, !tbaa !16
  %28 = getelementptr inbounds nuw %struct.gaobject, ptr %27, i32 0, i32 3
  %29 = load ptr, ptr %28, align 8, !tbaa !47
  %30 = call ptr @_Py_NewRef(ptr noundef %29)
  store ptr %30, ptr %3, align 8
  store i32 1, ptr %7, align 4
  br label %31

31:                                               ; preds = %26, %24
  call void @llvm.lifetime.end.p0(i64 8, ptr %6) #5
  %32 = load ptr, ptr %3, align 8
  ret ptr %32
}