; Function Attrs: nounwind uwtable
define internal noundef ptr @ga_parameters(ptr noundef captures(none) %0, ptr readnone captures(none) %1) #0 {
  %3 = getelementptr inbounds nuw i8, ptr %0, i64 32
  %4 = load ptr, ptr %3, align 8, !tbaa !47
  %5 = icmp eq ptr %4, null
  br i1 %5, label %6, label %11

6:                                                ; preds = %2
  %7 = getelementptr inbounds nuw i8, ptr %0, i64 24
  %8 = load ptr, ptr %7, align 8, !tbaa !34
  %9 = tail call ptr @_Py_make_parameters(ptr noundef %8)
  store ptr %9, ptr %3, align 8, !tbaa !47
  %10 = icmp eq ptr %9, null
  br i1 %10, label %_Py_NewRef.exit, label %11

11:                                               ; preds = %6, %2
  %12 = phi ptr [ %9, %6 ], [ %4, %2 ]
  %13 = load i32, ptr %12, align 8, !tbaa !23
  %14 = icmp slt i32 %13, 0
  br i1 %14, label %_Py_NewRef.exit, label %15

15:                                               ; preds = %11
  %16 = add nuw i32 %13, 1
  store i32 %16, ptr %12, align 8, !tbaa !23
  br label %_Py_NewRef.exit

_Py_NewRef.exit:                                  ; preds = %15, %11, %6
  %.0 = phi ptr [ null, %6 ], [ %12, %11 ], [ %12, %15 ]
  ret ptr %.0
}